target datalayout = "e-m:e-p270:32:32-p271:32:32-p272:64:64-i64:64-i128:128-f80:128-n8:16:32:64-S128"
target triple = "x86_64-pc-linux-gnu"

%"class.gmx::CommandLineCommonOptionsHolder" = type <{ %"class.gmx::Options", %"class.gmx::BinaryInformationSettings", i8, i8, i8, i8, i8, [3 x i8], i32, i8, i8, i8, i8, i32, [4 x i8] }>
%"class.gmx::Options" = type { %"class.gmx::IOptionsContainerWithSections", %"class.std::unique_ptr" }
%"class.gmx::IOptionsContainerWithSections" = type { %"class.gmx::IOptionsContainer" }
%"class.gmx::IOptionsContainer" = type { ptr }
%"class.std::unique_ptr" = type { %"struct.std::__uniq_ptr_data" }
%"struct.std::__uniq_ptr_data" = type { %"class.std::__uniq_ptr_impl" }
%"class.std::__uniq_ptr_impl" = type { %"class.std::tuple" }
%"class.std::tuple" = type { %"struct.std::_Tuple_impl" }
%"struct.std::_Tuple_impl" = type { %"struct.std::_Head_base.1" }
%"struct.std::_Head_base.1" = type { ptr }
%"class.gmx::BinaryInformationSettings" = type { i8, i8, i8, i8, ptr, ptr }

; Function Attrs: mustprogress uwtable
define void @_ZN3gmx30CommandLineCommonOptionsHolder18adjustFromSettingsERKNS_25CommandLineModuleSettingsE(ptr noundef nonnull align 8 dereferenceable(60) %0, ptr noundef nonnull align 8 dereferenceable(8) %1) #0 align 2 {
  %3 = alloca ptr, align 8
  %4 = alloca ptr, align 8
  store ptr %0, ptr %3, align 8
  store ptr %1, ptr %4, align 8
  %5 = load ptr, ptr %3, align 8
  %6 = getelementptr inbounds %"class.gmx::CommandLineCommonOptionsHolder", ptr %5, i32 0, i32 9
  %7 = load i8, ptr %6, align 4
  %8 = trunc i8 %7 to i1
  br i1 %8, label %13, label %9

9:                                                ; preds = %2
  %10 = load ptr, ptr %4, align 8
  %11 = call noundef i32 @_ZNK3gmx25CommandLineModuleSettings16defaultNiceLevelEv(ptr noundef nonnull align 8 dereferenceable(8) %10)
  %12 = getelementptr inbounds %"class.gmx::CommandLineCommonOptionsHolder", ptr %5, i32 0, i32 8
  store i32 %11, ptr %12, align 8
  br label %13

13:                                               ; preds = %9, %2
  ret void
}