; Function Attrs: mustprogress uwtable
define void @_ZN3gmx30CommandLineCommonOptionsHolder18adjustFromSettingsERKNS_25CommandLineModuleSettingsE(ptr nocapture noundef nonnull align 8 dereferenceable(60) %0, ptr noundef nonnull align 8 dereferenceable(8) %1) local_unnamed_addr #0 align 2 {
  %3 = getelementptr inbounds i8, ptr %0, i64 52
  %4 = load i8, ptr %3, align 4
  %5 = trunc i8 %4 to i1
  br i1 %5, label %9, label %6

6:                                                ; preds = %2
  %7 = tail call noundef i32 @_ZNK3gmx25CommandLineModuleSettings16defaultNiceLevelEv(ptr noundef nonnull align 8 dereferenceable(8) %1)
  %8 = getelementptr inbounds i8, ptr %0, i64 48
  store i32 %7, ptr %8, align 8
  br label %9

9:                                                ; preds = %6, %2
  ret void
}